; ModuleID = '49/1022.c'
source_filename = "49/1022.c"
target datalayout = "e-m:e-p270:32:32-p271:32:32-p272:64:64-i64:64-f80:128-n8:16:32:64-S128"
target triple = "x86_64-pc-linux-gnu"

@.str = private unnamed_addr constant [4 x i8] c"%s\0A\00", align 1

; Function Attrs: noinline nounwind uwtable
define dso_local i32 @f(i8* %0) #0 {
  %2 = alloca i32, align 4
  %3 = alloca i8*, align 8
  %4 = alloca i32, align 4
  %5 = alloca i32, align 4
  %6 = alloca i32, align 4
  %7 = alloca [501 x i8], align 16
  store i8* %0, i8** %3, align 8
  %8 = load i8*, i8** %3, align 8
  %9 = call i64 @strlen(i8* %8) #3
  %10 = trunc i64 %9 to i32
  store i32 %10, i32* %6, align 4
  store i32 0, i32* %5, align 4
  %11 = load i32, i32* %6, align 4
  %12 = sub nsw i32 %11, 1
  store i32 %12, i32* %4, align 4
  br label %13

13:                                               ; preds = %26, %1
  %14 = load i32, i32* %4, align 4
  %15 = icmp sge i32 %14, 0
  br i1 %15, label %16, label %29

16:                                               ; preds = %13
  %17 = load i8*, i8** %3, align 8
  %18 = load i32, i32* %4, align 4
  %19 = sext i32 %18 to i64
  %20 = getelementptr inbounds i8, i8* %17, i64 %19
  %21 = load i8, i8* %20, align 1
  %22 = load i32, i32* %5, align 4
  %23 = add nsw i32 %22, 1
  store i32 %23, i32* %5, align 4
  %24 = sext i32 %22 to i64
  %25 = getelementptr inbounds [501 x i8], [501 x i8]* %7, i64 0, i64 %24
  store i8 %21, i8* %25, align 1
  br label %26

26:                                               ; preds = %16
  %27 = load i32, i32* %4, align 4
  %28 = add nsw i32 %27, -1
  store i32 %28, i32* %4, align 4
  br label %13

29:                                               ; preds = %13
  %30 = load i32, i32* %5, align 4
  %31 = sext i32 %30 to i64
  %32 = getelementptr inbounds [501 x i8], [501 x i8]* %7, i64 0, i64 %31
  store i8 0, i8* %32, align 1
  %33 = load i8*, i8** %3, align 8
  %34 = getelementptr inbounds [501 x i8], [501 x i8]* %7, i64 0, i64 0
  %35 = call i32 @strcmp(i8* %33, i8* %34) #3
  %36 = icmp eq i32 %35, 0
  br i1 %36, label %37, label %38

37:                                               ; preds = %29
  store i32 1, i32* %2, align 4
  br label %39

38:                                               ; preds = %29
  store i32 0, i32* %2, align 4
  br label %39

39:                                               ; preds = %38, %37
  %40 = load i32, i32* %2, align 4
  ret i32 %40
}

; Function Attrs: nounwind readonly
declare dso_local i64 @strlen(i8*) #1

; Function Attrs: nounwind readonly
declare dso_local i32 @strcmp(i8*, i8*) #1

; Function Attrs: noinline nounwind uwtable
define dso_local i32 @main() #0 {
  %1 = alloca i32, align 4
  %2 = alloca [501 x i8], align 16
  %3 = alloca [501 x i8], align 16
  %4 = alloca i32, align 4
  %5 = alloca i32, align 4
  %6 = alloca i32, align 4
  %7 = alloca i32, align 4
  %8 = alloca i32, align 4
  store i32 0, i32* %1, align 4
  %9 = getelementptr inbounds [501 x i8], [501 x i8]* %2, i64 0, i64 0
  %10 = call i32 (i8*, ...) bitcast (i32 (...)* @gets to i32 (i8*, ...)*)(i8* %9)
  %11 = getelementptr inbounds [501 x i8], [501 x i8]* %2, i64 0, i64 0
  %12 = call i64 @strlen(i8* %11) #3
  %13 = trunc i64 %12 to i32
  store i32 %13, i32* %4, align 4
  store i32 2, i32* %5, align 4
  br label %14

14:                                               ; preds = %69, %0
  %15 = load i32, i32* %5, align 4
  %16 = load i32, i32* %4, align 4
  %17 = icmp sle i32 %15, %16
  br i1 %17, label %18, label %72

18:                                               ; preds = %14
  store i32 0, i32* %6, align 4
  br label %19

19:                                               ; preds = %65, %18
  %20 = load i32, i32* %6, align 4
  %21 = load i32, i32* %5, align 4
  %22 = add nsw i32 %20, %21
  %23 = sub nsw i32 %22, 1
  %24 = load i32, i32* %4, align 4
  %25 = icmp slt i32 %23, %24
  br i1 %25, label %26, label %68

26:                                               ; preds = %19
  store i32 0, i32* %8, align 4
  store i32 0, i32* %7, align 4
  br label %27

27:                                               ; preds = %34, %26
  %28 = load i32, i32* %7, align 4
  %29 = icmp slt i32 %28, 500
  br i1 %29, label %30, label %37

30:                                               ; preds = %27
  %31 = load i32, i32* %7, align 4
  %32 = sext i32 %31 to i64
  %33 = getelementptr inbounds [501 x i8], [501 x i8]* %3, i64 0, i64 %32
  store i8 0, i8* %33, align 1
  br label %34

34:                                               ; preds = %30
  %35 = load i32, i32* %7, align 4
  %36 = add nsw i32 %35, 1
  store i32 %36, i32* %7, align 4
  br label %27

37:                                               ; preds = %27
  %38 = load i32, i32* %6, align 4
  store i32 %38, i32* %7, align 4
  br label %39

39:                                               ; preds = %54, %37
  %40 = load i32, i32* %7, align 4
  %41 = load i32, i32* %6, align 4
  %42 = load i32, i32* %5, align 4
  %43 = add nsw i32 %41, %42
  %44 = icmp slt i32 %40, %43
  br i1 %44, label %45, label %57

45:                                               ; preds = %39
  %46 = load i32, i32* %7, align 4
  %47 = sext i32 %46 to i64
  %48 = getelementptr inbounds [501 x i8], [501 x i8]* %2, i64 0, i64 %47
  %49 = load i8, i8* %48, align 1
  %50 = load i32, i32* %8, align 4
  %51 = add nsw i32 %50, 1
  store i32 %51, i32* %8, align 4
  %52 = sext i32 %50 to i64
  %53 = getelementptr inbounds [501 x i8], [501 x i8]* %3, i64 0, i64 %52
  store i8 %49, i8* %53, align 1
  br label %54

54:                                               ; preds = %45
  %55 = load i32, i32* %7, align 4
  %56 = add nsw i32 %55, 1
  store i32 %56, i32* %7, align 4
  br label %39

57:                                               ; preds = %39
  %58 = getelementptr inbounds [501 x i8], [501 x i8]* %3, i64 0, i64 0
  %59 = call i32 @f(i8* %58)
  %60 = icmp eq i32 %59, 1
  br i1 %60, label %61, label %64

61:                                               ; preds = %57
  %62 = getelementptr inbounds [501 x i8], [501 x i8]* %3, i64 0, i64 0
  %63 = call i32 (i8*, ...) @printf(i8* getelementptr inbounds ([4 x i8], [4 x i8]* @.str, i64 0, i64 0), i8* %62)
  br label %64

64:                                               ; preds = %61, %57
  br label %65

65:                                               ; preds = %64
  %66 = load i32, i32* %6, align 4
  %67 = add nsw i32 %66, 1
  store i32 %67, i32* %6, align 4
  br label %19

68:                                               ; preds = %19
  br label %69

69:                                               ; preds = %68
  %70 = load i32, i32* %5, align 4
  %71 = add nsw i32 %70, 1
  store i32 %71, i32* %5, align 4
  br label %14

72:                                               ; preds = %14
  ret i32 0
}

declare dso_local i32 @gets(...) #2

declare dso_local i32 @printf(i8*, ...) #2


!llvm.module.flags = !{!0}
!llvm.ident = !{!1}

!0 = !{i32 1, !"wchar_size", i32 4}
!1 = !{!"clang version 10.0.0-4ubuntu1 "}
